target datalayout = "e-m:e-p270:32:32-p271:32:32-p272:64:64-i64:64-i128:128-f80:128-n8:16:32:64-S128"
target triple = "x86_64-pc-linux-gnu"

%struct.__loadu_ps = type { <4 x float> }
%struct.stbir__contributors = type { i32, i32 }
%struct.__mm_store_ss_struct = type { float }
%struct.__mm_loadl_epi64_struct = type { i64 }

; Function Attrs: alwaysinline nounwind uwtable
define available_externally void @_mm_store_ss(ptr noundef %0, <4 x float> noundef %1) #2 {
  %3 = alloca ptr, align 8
  %4 = alloca <4 x float>, align 16
  store ptr %0, ptr %3, align 8, !tbaa !21
  store <4 x float> %1, ptr %4, align 16, !tbaa !12
  %5 = load <4 x float>, ptr %4, align 16, !tbaa !12
  %6 = extractelement <4 x float> %5, i32 0
  %7 = load ptr, ptr %3, align 8, !tbaa !21
  %8 = getelementptr inbounds nuw %struct.__mm_store_ss_struct, ptr %7, i32 0, i32 0
  store float %6, ptr %8, align 1, !tbaa !12
  ret void
}

; Function Attrs: alwaysinline nounwind uwtable
define available_externally <4 x float> @_mm_add_ss(<4 x float> noundef %0, <4 x float> noundef %1) #2 {
  %3 = alloca <4 x float>, align 16
  %4 = alloca <4 x float>, align 16
  store <4 x float> %0, ptr %3, align 16, !tbaa !12
  store <4 x float> %1, ptr %4, align 16, !tbaa !12
  %5 = load <4 x float>, ptr %4, align 16, !tbaa !12
  %6 = extractelement <4 x float> %5, i32 0
  %7 = load <4 x float>, ptr %3, align 16
  %8 = extractelement <4 x float> %7, i32 0
  %9 = fadd float %8, %6
  %10 = load <4 x float>, ptr %3, align 16
  %11 = insertelement <4 x float> %10, float %9, i32 0
  store <4 x float> %11, ptr %3, align 16
  %12 = load <4 x float>, ptr %3, align 16, !tbaa !12
  ret <4 x float> %12
}

; Function Attrs: alwaysinline nounwind uwtable
define available_externally <2 x i64> @_mm_castps_si128(<4 x float> noundef %0) #2 {
  %2 = alloca <4 x float>, align 16
  store <4 x float> %0, ptr %2, align 16, !tbaa !12
  %3 = load <4 x float>, ptr %2, align 16, !tbaa !12
  %4 = bitcast <4 x float> %3 to <2 x i64>
  ret <2 x i64> %4
}

; Function Attrs: alwaysinline nounwind uwtable
define available_externally <4 x float> @_mm_castsi128_ps(<2 x i64> noundef %0) #2 {
  %2 = alloca <2 x i64>, align 16
  store <2 x i64> %0, ptr %2, align 16, !tbaa !12
  %3 = load <2 x i64>, ptr %2, align 16, !tbaa !12
  %4 = bitcast <2 x i64> %3 to <4 x float>
  ret <4 x float> %4
}

; Function Attrs: alwaysinline nounwind uwtable
define available_externally <2 x i64> @_mm_loadl_epi64(ptr noundef %0) #2 {
  %2 = alloca ptr, align 8
  %3 = alloca <2 x i64>, align 16
  store ptr %0, ptr %2, align 8, !tbaa !3
  %4 = load ptr, ptr %2, align 8, !tbaa !3
  %5 = getelementptr inbounds nuw %struct.__mm_loadl_epi64_struct, ptr %4, i32 0, i32 0
  %6 = load i64, ptr %5, align 1, !tbaa !12
  %7 = insertelement <2 x i64> poison, i64 %6, i32 0
  %8 = insertelement <2 x i64> %7, i64 0, i32 1
  store <2 x i64> %8, ptr %3, align 16, !tbaa !12
  %9 = load <2 x i64>, ptr %3, align 16, !tbaa !12
  ret <2 x i64> %9
}

; Function Attrs: alwaysinline nounwind uwtable
define available_externally <4 x float> @_mm_add_ps(<4 x float> noundef %0, <4 x float> noundef %1) #2 {
  %3 = alloca <4 x float>, align 16
  %4 = alloca <4 x float>, align 16
  store <4 x float> %0, ptr %3, align 16, !tbaa !12
  store <4 x float> %1, ptr %4, align 16, !tbaa !12
  %5 = load <4 x float>, ptr %3, align 16, !tbaa !12
  %6 = load <4 x float>, ptr %4, align 16, !tbaa !12
  %7 = fadd <4 x float> %5, %6
  ret <4 x float> %7
}

; Function Attrs: alwaysinline nounwind uwtable
define available_externally <4 x float> @_mm_mul_ps(<4 x float> noundef %0, <4 x float> noundef %1) #2 {
  %3 = alloca <4 x float>, align 16
  %4 = alloca <4 x float>, align 16
  store <4 x float> %0, ptr %3, align 16, !tbaa !12
  store <4 x float> %1, ptr %4, align 16, !tbaa !12
  %5 = load <4 x float>, ptr %3, align 16, !tbaa !12
  %6 = load <4 x float>, ptr %4, align 16, !tbaa !12
  %7 = fmul <4 x float> %5, %6
  ret <4 x float> %7
}

; Function Attrs: alwaysinline nounwind uwtable
define available_externally <4 x float> @_mm_loadu_ps(ptr noundef %0) #2 {
  %2 = alloca ptr, align 8
  store ptr %0, ptr %2, align 8, !tbaa !21
  %3 = load ptr, ptr %2, align 8, !tbaa !21
  %4 = getelementptr inbounds nuw %struct.__loadu_ps, ptr %3, i32 0, i32 0
  %5 = load <4 x float>, ptr %4, align 1, !tbaa !12
  ret <4 x float> %5
}

; Function Attrs: nounwind uwtable
define void @stbir__horizontal_gather_1_channels_with_n_coeffs_mod2(ptr noundef %0, i32 noundef %1, ptr noundef %2, ptr noundef %3, ptr noundef %4, i32 noundef %5) #0 {
  %7 = alloca ptr, align 8
  %8 = alloca i32, align 4
  %9 = alloca ptr, align 8
  %10 = alloca ptr, align 8
  %11 = alloca ptr, align 8
  %12 = alloca i32, align 4
  %13 = alloca ptr, align 8
  %14 = alloca ptr, align 8
  %15 = alloca ptr, align 8
  %16 = alloca i32, align 4
  %17 = alloca ptr, align 8
  %18 = alloca <4 x float>, align 16
  %19 = alloca <4 x float>, align 16
  %20 = alloca <4 x float>, align 16
  store ptr %0, ptr %7, align 8, !tbaa !21
  store i32 %1, ptr %8, align 4, !tbaa !26
  store ptr %2, ptr %9, align 8, !tbaa !21
  store ptr %3, ptr %10, align 8, !tbaa !3
  store ptr %4, ptr %11, align 8, !tbaa !21
  store i32 %5, ptr %12, align 4, !tbaa !26
  call void @llvm.lifetime.start.p0(i64 8, ptr %13) #12
  %21 = load ptr, ptr %7, align 8, !tbaa !21
  %22 = load i32, ptr %8, align 4, !tbaa !26
  %23 = mul i32 %22, 1
  %24 = zext i32 %23 to i64
  %25 = getelementptr inbounds nuw float, ptr %21, i64 %24
  store ptr %25, ptr %13, align 8, !tbaa !21
  call void @llvm.lifetime.start.p0(i64 8, ptr %14) #12
  %26 = load ptr, ptr %7, align 8, !tbaa !21
  store ptr %26, ptr %14, align 8, !tbaa !21
  br label %27

27:                                               ; preds = %117, %6
  call void @llvm.lifetime.start.p0(i64 8, ptr %15) #12
  %28 = load ptr, ptr %9, align 8, !tbaa !21
  %29 = load ptr, ptr %10, align 8, !tbaa !3
  %30 = getelementptr inbounds nuw %struct.stbir__contributors, ptr %29, i32 0, i32 0
  %31 = load i32, ptr %30, align 4, !tbaa !41
  %32 = mul nsw i32 %31, 1
  %33 = sext i32 %32 to i64
  %34 = getelementptr inbounds float, ptr %28, i64 %33
  store ptr %34, ptr %15, align 8, !tbaa !21
  call void @llvm.lifetime.start.p0(i64 4, ptr %16) #12
  %35 = load ptr, ptr %10, align 8, !tbaa !3
  %36 = getelementptr inbounds nuw %struct.stbir__contributors, ptr %35, i32 0, i32 1
  %37 = load i32, ptr %36, align 4, !tbaa !44
  %38 = load ptr, ptr %10, align 8, !tbaa !3
  %39 = getelementptr inbounds nuw %struct.stbir__contributors, ptr %38, i32 0, i32 0
  %40 = load i32, ptr %39, align 4, !tbaa !41
  %41 = sub nsw i32 %37, %40
  %42 = add nsw i32 %41, 1
  %43 = sub nsw i32 %42, 6
  %44 = add nsw i32 %43, 3
  %45 = ashr i32 %44, 2
  store i32 %45, ptr %16, align 4, !tbaa !26
  call void @llvm.lifetime.start.p0(i64 8, ptr %17) #12
  %46 = load ptr, ptr %11, align 8, !tbaa !21
  store ptr %46, ptr %17, align 8, !tbaa !21
  call void @llvm.lifetime.start.p0(i64 16, ptr %18) #12
  call void @llvm.lifetime.start.p0(i64 16, ptr %19) #12
  %47 = load ptr, ptr %15, align 8, !tbaa !21
  call void asm sideeffect "", "r,~{dirflag},~{fpsr},~{flags}"(ptr %47) #12, !srcloc !577
  %48 = load ptr, ptr %17, align 8, !tbaa !21
  %49 = call <4 x float> @_mm_loadu_ps(ptr noundef %48)
  store <4 x float> %49, ptr %19, align 16, !tbaa !12
  %50 = load <4 x float>, ptr %19, align 16, !tbaa !12
  %51 = load ptr, ptr %15, align 8, !tbaa !21
  %52 = call <4 x float> @_mm_loadu_ps(ptr noundef %51)
  %53 = call <4 x float> @_mm_mul_ps(<4 x float> noundef %50, <4 x float> noundef %52)
  store <4 x float> %53, ptr %18, align 16, !tbaa !12
  br label %54

54:                                               ; preds = %72, %27
  %55 = load ptr, ptr %17, align 8, !tbaa !21
  %56 = getelementptr inbounds float, ptr %55, i64 4
  store ptr %56, ptr %17, align 8, !tbaa !21
  %57 = load ptr, ptr %15, align 8, !tbaa !21
  %58 = getelementptr inbounds float, ptr %57, i64 4
  store ptr %58, ptr %15, align 8, !tbaa !21
  %59 = load ptr, ptr %15, align 8, !tbaa !21
  call void asm sideeffect "", "r,~{dirflag},~{fpsr},~{flags}"(ptr %59) #12, !srcloc !578
  %60 = load ptr, ptr %17, align 8, !tbaa !21
  %61 = getelementptr inbounds float, ptr %60, i64 0
  %62 = call <4 x float> @_mm_loadu_ps(ptr noundef %61)
  store <4 x float> %62, ptr %19, align 16, !tbaa !12
  %63 = load <4 x float>, ptr %18, align 16, !tbaa !12
  %64 = load <4 x float>, ptr %19, align 16, !tbaa !12
  %65 = load ptr, ptr %15, align 8, !tbaa !21
  %66 = getelementptr inbounds float, ptr %65, i64 0
  %67 = call <4 x float> @_mm_loadu_ps(ptr noundef %66)
  %68 = call <4 x float> @_mm_mul_ps(<4 x float> noundef %64, <4 x float> noundef %67)
  %69 = call <4 x float> @_mm_add_ps(<4 x float> noundef %63, <4 x float> noundef %68)
  store <4 x float> %69, ptr %18, align 16, !tbaa !12
  %70 = load i32, ptr %16, align 4, !tbaa !26
  %71 = add nsw i32 %70, -1
  store i32 %71, ptr %16, align 4, !tbaa !26
  br label %72

72:                                               ; preds = %54
  %73 = load i32, ptr %16, align 4, !tbaa !26
  %74 = icmp sgt i32 %73, 0
  br i1 %74, label %54, label %75, !llvm.loop !579

75:                                               ; preds = %72
  call void @llvm.lifetime.start.p0(i64 16, ptr %20) #12
  %76 = load ptr, ptr %17, align 8, !tbaa !21
  %77 = getelementptr inbounds float, ptr %76, i64 4
  %78 = call <2 x i64> @_mm_loadl_epi64(ptr noundef %77)
  %79 = call <4 x float> @_mm_castsi128_ps(<2 x i64> noundef %78)
  store <4 x float> %79, ptr %19, align 16, !tbaa !12
  %80 = load ptr, ptr %15, align 8, !tbaa !21
  %81 = getelementptr inbounds float, ptr %80, i64 4
  %82 = call <2 x i64> @_mm_loadl_epi64(ptr noundef %81)
  %83 = call <4 x float> @_mm_castsi128_ps(<2 x i64> noundef %82)
  store <4 x float> %83, ptr %20, align 16, !tbaa !12
  %84 = load <4 x float>, ptr %18, align 16, !tbaa !12
  %85 = load <4 x float>, ptr %20, align 16, !tbaa !12
  %86 = load <4 x float>, ptr %19, align 16, !tbaa !12
  %87 = call <4 x float> @_mm_mul_ps(<4 x float> noundef %85, <4 x float> noundef %86)
  %88 = call <4 x float> @_mm_add_ps(<4 x float> noundef %84, <4 x float> noundef %87)
  store <4 x float> %88, ptr %18, align 16, !tbaa !12
  call void @llvm.lifetime.end.p0(i64 16, ptr %20) #12
  %89 = load <4 x float>, ptr %18, align 16, !tbaa !12
  %90 = call <2 x i64> @_mm_castps_si128(<4 x float> noundef %89)
  %91 = bitcast <2 x i64> %90 to <4 x i32>
  %92 = shufflevector <4 x i32> %91, <4 x i32> poison, <4 x i32> <i32 2, i32 3, i32 0, i32 1>
  %93 = bitcast <4 x i32> %92 to <2 x i64>
  %94 = call <4 x float> @_mm_castsi128_ps(<2 x i64> noundef %93)
  store <4 x float> %94, ptr %19, align 16, !tbaa !12
  %95 = load <4 x float>, ptr %18, align 16, !tbaa !12
  %96 = load <4 x float>, ptr %19, align 16, !tbaa !12
  %97 = call <4 x float> @_mm_add_ps(<4 x float> noundef %95, <4 x float> noundef %96)
  store <4 x float> %97, ptr %18, align 16, !tbaa !12
  %98 = load <4 x float>, ptr %18, align 16, !tbaa !12
  %99 = call <2 x i64> @_mm_castps_si128(<4 x float> noundef %98)
  %100 = bitcast <2 x i64> %99 to <4 x i32>
  %101 = shufflevector <4 x i32> %100, <4 x i32> poison, <4 x i32> <i32 1, i32 2, i32 3, i32 0>
  %102 = bitcast <4 x i32> %101 to <2 x i64>
  %103 = call <4 x float> @_mm_castsi128_ps(<2 x i64> noundef %102)
  store <4 x float> %103, ptr %19, align 16, !tbaa !12
  %104 = load <4 x float>, ptr %18, align 16, !tbaa !12
  %105 = load <4 x float>, ptr %19, align 16, !tbaa !12
  %106 = call <4 x float> @_mm_add_ss(<4 x float> noundef %104, <4 x float> noundef %105)
  store <4 x float> %106, ptr %18, align 16, !tbaa !12
  %107 = load ptr, ptr %14, align 8, !tbaa !21
  %108 = load <4 x float>, ptr %18, align 16, !tbaa !12
  call void @_mm_store_ss(ptr noundef %107, <4 x float> noundef %108)
  %109 = load i32, ptr %12, align 4, !tbaa !26
  %110 = load ptr, ptr %11, align 8, !tbaa !21
  %111 = sext i32 %109 to i64
  %112 = getelementptr inbounds float, ptr %110, i64 %111
  store ptr %112, ptr %11, align 8, !tbaa !21
  %113 = load ptr, ptr %10, align 8, !tbaa !3
  %114 = getelementptr inbounds nuw %struct.stbir__contributors, ptr %113, i32 1
  store ptr %114, ptr %10, align 8, !tbaa !3
  %115 = load ptr, ptr %14, align 8, !tbaa !21
  %116 = getelementptr inbounds float, ptr %115, i64 1
  store ptr %116, ptr %14, align 8, !tbaa !21
  call void @llvm.lifetime.end.p0(i64 16, ptr %19) #12
  call void @llvm.lifetime.end.p0(i64 16, ptr %18) #12
  call void @llvm.lifetime.end.p0(i64 8, ptr %17) #12
  call void @llvm.lifetime.end.p0(i64 4, ptr %16) #12
  call void @llvm.lifetime.end.p0(i64 8, ptr %15) #12
  br label %117

117:                                              ; preds = %75
  %118 = load ptr, ptr %14, align 8, !tbaa !21
  %119 = load ptr, ptr %13, align 8, !tbaa !21
  %120 = icmp ult ptr %118, %119
  br i1 %120, label %27, label %121, !llvm.loop !580

121:                                              ; preds = %117
  call void @llvm.lifetime.end.p0(i64 8, ptr %14) #12
  call void @llvm.lifetime.end.p0(i64 8, ptr %13) #12
  ret void
}