; Function Attrs: nounwind uwtable
define void @stbir__horizontal_gather_1_channels_with_n_coeffs_mod2(ptr noundef writeonly captures(address) %0, i32 noundef %1, ptr noundef %2, ptr noundef readonly captures(none) %3, ptr noundef readonly captures(none) %4, i32 noundef %5) #0 {
  %7 = zext i32 %1 to i64
  %8 = getelementptr inbounds nuw float, ptr %0, i64 %7
  %9 = sext i32 %5 to i64
  br label %10

10:                                               ; preds = %30, %6
  %.044 = phi ptr [ %4, %6 ], [ %45, %30 ]
  %.043 = phi ptr [ %0, %6 ], [ %47, %30 ]
  %.0 = phi ptr [ %3, %6 ], [ %46, %30 ]
  %11 = load i32, ptr %.0, align 4, !tbaa !34
  %12 = sext i32 %11 to i64
  %13 = getelementptr inbounds float, ptr %2, i64 %12
  %14 = getelementptr inbounds nuw i8, ptr %.0, i64 4
  %15 = load i32, ptr %14, align 4, !tbaa !37
  %reass.sub = sub i32 %15, %11
  %16 = add i32 %reass.sub, -2
  %17 = ashr i32 %16, 2
  tail call void asm sideeffect "", "r,~{dirflag},~{fpsr},~{flags}"(ptr %13) #24, !srcloc !501
  %18 = load <4 x float>, ptr %.044, align 1, !tbaa !4
  %19 = load <4 x float>, ptr %13, align 1, !tbaa !4
  %20 = fmul <4 x float> %18, %19
  br label %21

21:                                               ; preds = %21, %10
  %.042 = phi ptr [ %13, %10 ], [ %23, %21 ]
  %.041 = phi i32 [ %17, %10 ], [ %28, %21 ]
  %.040 = phi ptr [ %.044, %10 ], [ %22, %21 ]
  %.039 = phi <4 x float> [ %20, %10 ], [ %27, %21 ]
  %22 = getelementptr inbounds nuw i8, ptr %.040, i64 16
  %23 = getelementptr inbounds nuw i8, ptr %.042, i64 16
  tail call void asm sideeffect "", "r,~{dirflag},~{fpsr},~{flags}"(ptr nonnull %23) #24, !srcloc !502
  %24 = load <4 x float>, ptr %22, align 1, !tbaa !4
  %25 = load <4 x float>, ptr %23, align 1, !tbaa !4
  %26 = fmul <4 x float> %24, %25
  %27 = fadd <4 x float> %.039, %26
  %28 = add nsw i32 %.041, -1
  %29 = icmp sgt i32 %.041, 1
  br i1 %29, label %21, label %30, !llvm.loop !503

30:                                               ; preds = %21
  %31 = getelementptr inbounds nuw i8, ptr %.040, i64 32
  %32 = load i64, ptr %31, align 1, !tbaa !4
  %33 = insertelement <2 x i64> <i64 poison, i64 0>, i64 %32, i64 0
  %34 = bitcast <2 x i64> %33 to <4 x float>
  %35 = getelementptr inbounds nuw i8, ptr %.042, i64 32
  %36 = load i64, ptr %35, align 1, !tbaa !4
  %37 = insertelement <2 x i64> <i64 poison, i64 0>, i64 %36, i64 0
  %38 = bitcast <2 x i64> %37 to <4 x float>
  %39 = fmul <4 x float> %34, %38
  %40 = fadd <4 x float> %27, %39
  %41 = shufflevector <4 x float> %40, <4 x float> poison, <4 x i32> <i32 2, i32 3, i32 poison, i32 poison>
  %42 = fadd <4 x float> %40, %41
  %shift = shufflevector <4 x float> %42, <4 x float> poison, <4 x i32> <i32 1, i32 poison, i32 poison, i32 poison>
  %43 = fadd <4 x float> %42, %shift
  %44 = extractelement <4 x float> %43, i64 0
  store float %44, ptr %.043, align 1, !tbaa !4
  %45 = getelementptr inbounds float, ptr %.044, i64 %9
  %46 = getelementptr inbounds nuw i8, ptr %.0, i64 8
  %47 = getelementptr inbounds nuw i8, ptr %.043, i64 4
  %48 = icmp ult ptr %47, %8
  br i1 %48, label %10, label %49, !llvm.loop !504

49:                                               ; preds = %30
  ret void
}